; Function Attrs: mustprogress nounwind uwtable
define hidden void @_ZNK12ErrorContext7detailsEP12outputStreamPK6Method(ptr noundef nonnull align 8 dereferenceable(56) %0, ptr noundef %1, ptr noundef %2) local_unnamed_addr #1 align 2 {
  %4 = getelementptr inbounds i8, ptr %0, i64 4
  %5 = load i32, ptr %4, align 4
  %.not = icmp eq i32 %5, 11
  br i1 %.not, label %22, label %6

6:                                                ; preds = %3
  tail call void @_ZN12outputStream2crEv(ptr noundef nonnull align 8 dereferenceable(56) %1) #20
  tail call void (ptr, ptr, ...) @_ZN12outputStream8print_crEPKcz(ptr noundef nonnull align 8 dereferenceable(56) %1, ptr noundef nonnull @.str.21) #20
  tail call void @_ZNK12ErrorContext16location_detailsEP12outputStreamPK6Method(ptr noundef nonnull align 8 dereferenceable(56) %0, ptr noundef nonnull %1, ptr noundef %2)
  tail call void @_ZNK12ErrorContext14reason_detailsEP12outputStream(ptr noundef nonnull align 8 dereferenceable(56) %0, ptr noundef nonnull %1)
  tail call void @_ZNK12ErrorContext13frame_detailsEP12outputStream(ptr noundef nonnull align 8 dereferenceable(56) %0, ptr noundef nonnull %1)
  %.not.i = icmp eq ptr %2, null
  br i1 %.not.i, label %_ZNK12ErrorContext16bytecode_detailsEP12outputStreamPK6Method.exit, label %7

7:                                                ; preds = %6
  %8 = getelementptr inbounds i8, ptr %1, i64 8
  %9 = load i32, ptr %8, align 8
  %10 = add nsw i32 %9, 2
  store i32 %10, ptr %8, align 8
  %11 = tail call noundef nonnull align 8 dereferenceable(56) ptr @_ZN12outputStream6indentEv(ptr noundef nonnull align 8 dereferenceable(56) %1) #20
  tail call void (ptr, ptr, ...) @_ZN12outputStream8print_crEPKcz(ptr noundef nonnull align 8 dereferenceable(56) %11, ptr noundef nonnull @.str.46) #20
  %12 = load i32, ptr %8, align 8
  %13 = add nsw i32 %12, 2
  store i32 %13, ptr %8, align 8
  %14 = getelementptr inbounds i8, ptr %2, i64 8
  %15 = load ptr, ptr %14, align 8
  %16 = getelementptr inbounds i8, ptr %15, i64 56
  %17 = getelementptr inbounds i8, ptr %15, i64 34
  %18 = load i16, ptr %17, align 2
  %19 = zext i16 %18 to i64
  tail call void @_ZN12outputStream10print_dataEPvmbb(ptr noundef nonnull align 8 dereferenceable(56) %1, ptr noundef nonnull %16, i64 noundef %19, i1 noundef zeroext false, i1 noundef zeroext true) #20
  %20 = load i32, ptr %8, align 8
  %21 = add nsw i32 %20, -4
  store i32 %21, ptr %8, align 8
  br label %_ZNK12ErrorContext16bytecode_detailsEP12outputStreamPK6Method.exit

_ZNK12ErrorContext16bytecode_detailsEP12outputStreamPK6Method.exit: ; preds = %6, %7
  tail call void @_ZNK12ErrorContext15handler_detailsEP12outputStreamPK6Method(ptr nonnull align 8 poison, ptr noundef nonnull %1, ptr noundef %2)
  tail call void @_ZNK12ErrorContext16stackmap_detailsEP12outputStreamPK6Method(ptr nonnull align 8 poison, ptr noundef nonnull %1, ptr noundef %2)
  br label %22

22:                                               ; preds = %_ZNK12ErrorContext16bytecode_detailsEP12outputStreamPK6Method.exit, %3
  ret void
}